; Function Attrs: nounwind uwtable
define hidden range(i32 0, 2) i32 @aom_rb_read_bit(ptr noundef captures(none) %0) local_unnamed_addr #1 {
  %2 = getelementptr inbounds nuw i8, ptr %0, i64 16
  %3 = load i32, ptr %2, align 8
  %4 = lshr i32 %3, 3
  %5 = load ptr, ptr %0, align 8
  %6 = zext nneg i32 %4 to i64
  %7 = getelementptr inbounds nuw i8, ptr %5, i64 %6
  %8 = getelementptr inbounds nuw i8, ptr %0, i64 8
  %9 = load ptr, ptr %8, align 8
  %10 = icmp ult ptr %7, %9
  br i1 %10, label %11, label %19

11:                                               ; preds = %1
  %12 = and i32 %3, 7
  %13 = xor i32 %12, 7
  %14 = load i8, ptr %7, align 1
  %15 = zext i8 %14 to i32
  %16 = lshr i32 %15, %13
  %17 = and i32 %16, 1
  %18 = add i32 %3, 1
  store i32 %18, ptr %2, align 8
  br label %25

19:                                               ; preds = %1
  %20 = getelementptr inbounds nuw i8, ptr %0, i64 32
  %21 = load ptr, ptr %20, align 8
  %.not = icmp eq ptr %21, null
  br i1 %.not, label %25, label %22

22:                                               ; preds = %19
  %23 = getelementptr inbounds nuw i8, ptr %0, i64 24
  %24 = load ptr, ptr %23, align 8
  tail call void %21(ptr noundef %24) #3
  br label %25

25:                                               ; preds = %19, %22, %11
  %.0 = phi i32 [ %17, %11 ], [ 0, %22 ], [ 0, %19 ]
  ret i32 %.0
}